target datalayout = "e-m:e-p270:32:32-p271:32:32-p272:64:64-i64:64-i128:128-f80:128-n8:16:32:64-S128"
target triple = "x86_64-pc-linux-gnu"

@.str.6 = private unnamed_addr constant [5 x i8] c"Test\00", align 1

; Function Attrs: nounwind uwtable
define internal i32 @do_evp_md(ptr noundef %0, ptr noundef %1) #0 {
  %3 = alloca ptr, align 8
  %4 = alloca ptr, align 8
  %5 = alloca i32, align 4
  %6 = alloca [64 x i8], align 16
  %7 = alloca i32, align 4
  %8 = alloca ptr, align 8
  store ptr %0, ptr %3, align 8, !tbaa !41
  store ptr %1, ptr %4, align 8, !tbaa !43
  call void @llvm.lifetime.start.p0(i64 4, ptr %5) #6
  store i32 1, ptr %5, align 4, !tbaa !37
  call void @llvm.lifetime.start.p0(i64 64, ptr %6) #6
  call void @llvm.lifetime.start.p0(i64 4, ptr %7) #6
  call void @llvm.lifetime.start.p0(i64 8, ptr %8) #6
  store ptr null, ptr %8, align 8, !tbaa !80
  %9 = call ptr @EVP_MD_CTX_new()
  store ptr %9, ptr %8, align 8, !tbaa !80
  %10 = icmp ne ptr %9, null
  br i1 %10, label %12, label %11

11:                                               ; preds = %2
  store i32 0, ptr %5, align 4, !tbaa !37
  br label %36

12:                                               ; preds = %2
  %13 = load ptr, ptr %8, align 8, !tbaa !80
  %14 = load ptr, ptr %4, align 8, !tbaa !43
  %15 = call i32 @EVP_MD_CTX_set_params(ptr noundef %13, ptr noundef %14)
  %16 = icmp ne i32 %15, 0
  br i1 %16, label %18, label %17

17:                                               ; preds = %12
  store i32 0, ptr %5, align 4, !tbaa !37
  br label %36

18:                                               ; preds = %12
  %19 = load ptr, ptr %8, align 8, !tbaa !80
  %20 = load ptr, ptr %3, align 8, !tbaa !41
  %21 = call i32 @EVP_DigestInit_ex2(ptr noundef %19, ptr noundef %20, ptr noundef null)
  %22 = icmp ne i32 %21, 0
  br i1 %22, label %24, label %23

23:                                               ; preds = %18
  store i32 0, ptr %5, align 4, !tbaa !37
  br label %36

24:                                               ; preds = %18
  %25 = load ptr, ptr %8, align 8, !tbaa !80
  %26 = call i32 @EVP_DigestUpdate(ptr noundef %25, ptr noundef @.str.6, i64 noundef 4)
  %27 = icmp ne i32 %26, 0
  br i1 %27, label %29, label %28

28:                                               ; preds = %24
  store i32 0, ptr %5, align 4, !tbaa !37
  br label %36

29:                                               ; preds = %24
  %30 = load ptr, ptr %8, align 8, !tbaa !80
  %31 = getelementptr inbounds [64 x i8], ptr %6, i64 0, i64 0
  %32 = call i32 @EVP_DigestFinal_ex(ptr noundef %30, ptr noundef %31, ptr noundef %7)
  %33 = icmp ne i32 %32, 0
  br i1 %33, label %35, label %34

34:                                               ; preds = %29
  store i32 0, ptr %5, align 4, !tbaa !37
  br label %36

35:                                               ; preds = %29
  br label %36

36:                                               ; preds = %35, %34, %28, %23, %17, %11
  %37 = load ptr, ptr %8, align 8, !tbaa !80
  call void @EVP_MD_CTX_free(ptr noundef %37)
  %38 = load i32, ptr %5, align 4, !tbaa !37
  call void @llvm.lifetime.end.p0(i64 8, ptr %8) #6
  call void @llvm.lifetime.end.p0(i64 4, ptr %7) #6
  call void @llvm.lifetime.end.p0(i64 64, ptr %6) #6
  call void @llvm.lifetime.end.p0(i64 4, ptr %5) #6
  ret i32 %38
}