; Function Attrs: nounwind uwtable
define internal fastcc void @do_evp_md(ptr noundef nonnull %0, ptr noundef nonnull %1) unnamed_addr #0 {
  %3 = alloca [64 x i8], align 16
  %4 = alloca i32, align 4
  call void @llvm.lifetime.start.p0(i64 64, ptr nonnull %3) #6
  call void @llvm.lifetime.start.p0(i64 4, ptr nonnull %4) #6
  %5 = tail call ptr @EVP_MD_CTX_new() #6
  %.not = icmp eq ptr %5, null
  br i1 %.not, label %14, label %6

6:                                                ; preds = %2
  %7 = tail call i32 @EVP_MD_CTX_set_params(ptr noundef nonnull %5, ptr noundef nonnull %1) #6
  %.not8 = icmp eq i32 %7, 0
  br i1 %.not8, label %14, label %8

8:                                                ; preds = %6
  %9 = tail call i32 @EVP_DigestInit_ex2(ptr noundef nonnull %5, ptr noundef nonnull %0, ptr noundef null) #6
  %.not9 = icmp eq i32 %9, 0
  br i1 %.not9, label %14, label %10

10:                                               ; preds = %8
  %11 = tail call i32 @EVP_DigestUpdate(ptr noundef nonnull %5, ptr noundef nonnull @.str.6, i64 noundef 4) #6
  %.not10 = icmp eq i32 %11, 0
  br i1 %.not10, label %14, label %12

12:                                               ; preds = %10
  %13 = call i32 @EVP_DigestFinal_ex(ptr noundef nonnull %5, ptr noundef nonnull %3, ptr noundef nonnull %4) #6
  br label %14

14:                                               ; preds = %12, %10, %8, %6, %2
  call void @EVP_MD_CTX_free(ptr noundef %5) #6
  call void @llvm.lifetime.end.p0(i64 4, ptr nonnull %4) #6
  call void @llvm.lifetime.end.p0(i64 64, ptr nonnull %3) #6
  ret void
}